target datalayout = "e-m:e-p270:32:32-p271:32:32-p272:64:64-i64:64-i128:128-f80:128-n8:16:32:64-S128"
target triple = "x86_64-pc-linux-gnu"

; Function Attrs: nounwind sspstrong uwtable
define hidden i64 @pm_encoding_utf_8_char_width(ptr noundef %0, i64 noundef %1) #0 {
  %3 = alloca i64, align 8
  %4 = alloca ptr, align 8
  %5 = alloca i64, align 8
  %6 = alloca i64, align 8
  %7 = alloca i32, align 4
  %8 = alloca i64, align 8
  %9 = alloca i32, align 4
  store ptr %0, ptr %4, align 8, !tbaa !7
  store i64 %1, ptr %5, align 8, !tbaa !12
  call void @llvm.lifetime.start.p0(i64 8, ptr %6) #3
  %10 = load i64, ptr %5, align 8, !tbaa !12
  %11 = icmp sgt i64 %10, 4
  br i1 %11, label %12, label %13

12:                                               ; preds = %2
  br label %15

13:                                               ; preds = %2
  %14 = load i64, ptr %5, align 8, !tbaa !12
  br label %15

15:                                               ; preds = %13, %12
  %16 = phi i64 [ 4, %12 ], [ %14, %13 ]
  store i64 %16, ptr %6, align 8, !tbaa !12
  call void @llvm.lifetime.start.p0(i64 4, ptr %7) #3
  store i32 0, ptr %7, align 4, !tbaa !14
  call void @llvm.lifetime.start.p0(i64 8, ptr %8) #3
  store i64 0, ptr %8, align 8, !tbaa !12
  br label %17

17:                                               ; preds = %45, %15
  %18 = load i64, ptr %8, align 8, !tbaa !12
  %19 = load i64, ptr %6, align 8, !tbaa !12
  %20 = icmp ult i64 %18, %19
  br i1 %20, label %22, label %21

21:                                               ; preds = %17
  store i32 2, ptr %9, align 4
  br label %48

22:                                               ; preds = %17
  %23 = load i32, ptr %7, align 4, !tbaa !14
  %24 = mul i32 %23, 16
  %25 = add i32 256, %24
  %26 = load ptr, ptr %4, align 8, !tbaa !7
  %27 = load i64, ptr %8, align 8, !tbaa !12
  %28 = getelementptr i8, ptr %26, i64 %27
  %29 = load i8, ptr %28, align 1, !tbaa !16
  %30 = zext i8 %29 to i64
  %31 = getelementptr [400 x i8], ptr @pm_utf_8_dfa, i64 0, i64 %30
  %32 = load i8, ptr %31, align 1, !tbaa !16
  %33 = zext i8 %32 to i32
  %34 = add i32 %25, %33
  %35 = zext i32 %34 to i64
  %36 = getelementptr [400 x i8], ptr @pm_utf_8_dfa, i64 0, i64 %35
  %37 = load i8, ptr %36, align 1, !tbaa !16
  %38 = zext i8 %37 to i32
  store i32 %38, ptr %7, align 4, !tbaa !14
  %39 = load i32, ptr %7, align 4, !tbaa !14
  %40 = icmp eq i32 %39, 0
  br i1 %40, label %41, label %44

41:                                               ; preds = %22
  %42 = load i64, ptr %8, align 8, !tbaa !12
  %43 = add i64 %42, 1
  store i64 %43, ptr %3, align 8
  store i32 1, ptr %9, align 4
  br label %48

44:                                               ; preds = %22
  br label %45

45:                                               ; preds = %44
  %46 = load i64, ptr %8, align 8, !tbaa !12
  %47 = add i64 %46, 1
  store i64 %47, ptr %8, align 8, !tbaa !12
  br label %17, !llvm.loop !17

48:                                               ; preds = %41, %21
  call void @llvm.lifetime.end.p0(i64 8, ptr %8) #3
  %49 = load i32, ptr %9, align 4
  switch i32 %49, label %51 [
    i32 2, label %50
  ]

50:                                               ; preds = %48
  store i64 0, ptr %3, align 8
  store i32 1, ptr %9, align 4
  br label %51

51:                                               ; preds = %50, %48
  call void @llvm.lifetime.end.p0(i64 4, ptr %7) #3
  call void @llvm.lifetime.end.p0(i64 8, ptr %6) #3
  %52 = load i64, ptr %3, align 8
  ret i64 %52
}