; Function Attrs: nofree norecurse nosync nounwind sspstrong memory(argmem: read) uwtable
define hidden i64 @pm_encoding_utf_8_char_width(ptr noundef readonly captures(none) %0, i64 noundef %1) #0 {
  %.not16.not = icmp eq i64 %1, 0
  br i1 %.not16.not, label %.loopexit, label %.lr.ph.preheader

.lr.ph.preheader:                                 ; preds = %2
  %3 = tail call i64 @llvm.smin.i64(i64 %1, i64 4)
  %umax = tail call i64 @llvm.umax.i64(i64 %3, i64 1)
  br label %.lr.ph

.lr.ph:                                           ; preds = %.lr.ph.preheader, %18
  %.01118 = phi i64 [ %20, %18 ], [ 0, %.lr.ph.preheader ]
  %.01217 = phi i64 [ %19, %18 ], [ 0, %.lr.ph.preheader ]
  %4 = shl nuw nsw i64 %.01217, 4
  %5 = add nuw nsw i64 %4, 256
  %6 = getelementptr i8, ptr %0, i64 %.01118
  %7 = load i8, ptr %6, align 1, !tbaa !7
  %8 = zext i8 %7 to i64
  %9 = getelementptr [400 x i8], ptr @pm_utf_8_dfa, i64 0, i64 %8
  %10 = load i8, ptr %9, align 1, !tbaa !7
  %11 = zext i8 %10 to i64
  %12 = add nuw nsw i64 %5, %11
  %13 = getelementptr [400 x i8], ptr @pm_utf_8_dfa, i64 0, i64 %12
  %14 = load i8, ptr %13, align 1, !tbaa !7
  %15 = icmp eq i8 %14, 0
  br i1 %15, label %16, label %18

16:                                               ; preds = %.lr.ph
  %17 = add nuw i64 %.01118, 1
  br label %.loopexit

18:                                               ; preds = %.lr.ph
  %19 = zext i8 %14 to i64
  %20 = add nuw i64 %.01118, 1
  %exitcond.not = icmp eq i64 %20, %umax
  br i1 %exitcond.not, label %.loopexit, label %.lr.ph, !llvm.loop !10

.loopexit:                                        ; preds = %18, %2, %16
  %spec.select = phi i64 [ %17, %16 ], [ 0, %2 ], [ 0, %18 ]
  ret i64 %spec.select
}